; Function Attrs: inlinehint mustprogress nofree norecurse nosync nounwind willreturn memory(argmem: readwrite) uwtable
define internal fastcc void @idctRowCondDC_int16_10bit(ptr noundef captures(none) %0) unnamed_addr #1 {
  %2 = getelementptr inbounds nuw i8, ptr %0, i64 4
  %3 = load i32, ptr %2, align 4
  %4 = getelementptr inbounds nuw i8, ptr %0, i64 8
  %5 = load i32, ptr %4, align 4, !tbaa !10
  %6 = getelementptr inbounds nuw i8, ptr %0, i64 12
  %7 = load i32, ptr %6, align 4, !tbaa !10
  %8 = or i32 %5, %7
  %9 = or i32 %8, %3
  %10 = getelementptr inbounds nuw i8, ptr %0, i64 2
  %11 = load i16, ptr %10, align 2, !tbaa !6
  %12 = sext i16 %11 to i32
  %13 = or i32 %9, %12
  %.not = icmp eq i32 %13, 0
  %14 = load i16, ptr %0, align 2, !tbaa !6
  %15 = sext i16 %14 to i32
  br i1 %.not, label %16, label %20

16:                                               ; preds = %1
  %17 = shl nsw i32 %15, 2
  %18 = and i32 %17, 65532
  %19 = mul nuw i32 %18, 65537
  store i32 %19, ptr %0, align 4, !tbaa !10
  store i32 %19, ptr %2, align 4, !tbaa !10
  store i32 %19, ptr %4, align 4, !tbaa !10
  store i32 %19, ptr %6, align 4, !tbaa !10
  br label %107

20:                                               ; preds = %1
  %21 = shl nsw i32 %15, 14
  %22 = or disjoint i32 %21, 2048
  %sext = shl i32 %3, 16
  %23 = ashr exact i32 %sext, 16
  %24 = mul nsw i32 %23, 21407
  %25 = add nsw i32 %22, %24
  %26 = mul nsw i32 %23, 8867
  %27 = add nsw i32 %22, %26
  %28 = sub nsw i32 %22, %26
  %29 = sub nsw i32 %22, %24
  %30 = mul nsw i32 %12, 22725
  %31 = getelementptr inbounds nuw i8, ptr %0, i64 6
  %32 = ashr i32 %3, 16
  %33 = mul nsw i32 %32, 19265
  %34 = add nsw i32 %33, %30
  %35 = mul nsw i32 %12, 19265
  %36 = mul nsw i32 %32, -4520
  %37 = add nsw i32 %36, %35
  %38 = mul nsw i32 %12, 12873
  %39 = mul nsw i32 %32, -22725
  %40 = add nsw i32 %39, %38
  %41 = mul nsw i32 %12, 4520
  %42 = mul nsw i32 %32, -12873
  %43 = add nsw i32 %42, %41
  %44 = load i64, ptr %4, align 8
  %.not114 = icmp eq i64 %44, 0
  br i1 %.not114, label %80, label %45

45:                                               ; preds = %20
  %46 = trunc i64 %44 to i32
  %47 = trunc i64 %44 to i32
  %sext117 = shl i32 %47, 16
  %48 = ashr exact i32 %sext117, 16
  %49 = ashr exact i32 %sext117, 2
  %sh.diff = lshr i64 %44, 16
  %tr.sh.diff = trunc i64 %sh.diff to i32
  %50 = ashr i32 %tr.sh.diff, 16
  %51 = mul nsw i32 %50, 8867
  %52 = add i32 %49, %25
  %53 = add i32 %52, %51
  %54 = mul nsw i32 %48, -16384
  %55 = mul nsw i32 %50, 21407
  %56 = add i32 %54, %27
  %57 = sub i32 %56, %55
  %58 = add i32 %54, %28
  %59 = add i32 %58, %55
  %60 = add i32 %49, %29
  %61 = sub i32 %60, %51
  %62 = ashr i32 %46, 16
  %63 = mul nsw i32 %62, 12873
  %64 = add nsw i32 %63, %34
  %sh.diff121 = lshr i64 %44, 32
  %tr.sh.diff122 = trunc nuw i64 %sh.diff121 to i32
  %65 = ashr i32 %tr.sh.diff122, 16
  %66 = mul nsw i32 %65, 4520
  %67 = add nsw i32 %64, %66
  %68 = mul nsw i32 %62, -22725
  %69 = add nsw i32 %68, %37
  %70 = mul nsw i32 %65, -12873
  %71 = add nsw i32 %69, %70
  %72 = mul nsw i32 %62, 4520
  %73 = add nsw i32 %72, %40
  %74 = mul nsw i32 %65, 19265
  %75 = add nsw i32 %73, %74
  %76 = mul nsw i32 %62, 19265
  %77 = add nsw i32 %76, %43
  %78 = mul nsw i32 %65, -22725
  %79 = add nsw i32 %77, %78
  br label %80

80:                                               ; preds = %45, %20
  %.0112 = phi i32 [ %53, %45 ], [ %25, %20 ]
  %.0111 = phi i32 [ %57, %45 ], [ %27, %20 ]
  %.0110 = phi i32 [ %59, %45 ], [ %28, %20 ]
  %.0109 = phi i32 [ %61, %45 ], [ %29, %20 ]
  %.0108 = phi i32 [ %67, %45 ], [ %34, %20 ]
  %.0107 = phi i32 [ %71, %45 ], [ %37, %20 ]
  %.0106 = phi i32 [ %75, %45 ], [ %40, %20 ]
  %.0105 = phi i32 [ %79, %45 ], [ %43, %20 ]
  %81 = add i32 %.0108, %.0112
  %82 = lshr i32 %81, 12
  %83 = trunc i32 %82 to i16
  store i16 %83, ptr %0, align 2, !tbaa !6
  %84 = sub i32 %.0112, %.0108
  %85 = lshr i32 %84, 12
  %86 = trunc i32 %85 to i16
  %87 = getelementptr inbounds nuw i8, ptr %0, i64 14
  store i16 %86, ptr %87, align 2, !tbaa !6
  %88 = add i32 %.0107, %.0111
  %89 = lshr i32 %88, 12
  %90 = trunc i32 %89 to i16
  store i16 %90, ptr %10, align 2, !tbaa !6
  %91 = sub i32 %.0111, %.0107
  %92 = lshr i32 %91, 12
  %93 = trunc i32 %92 to i16
  store i16 %93, ptr %6, align 2, !tbaa !6
  %94 = add i32 %.0106, %.0110
  %95 = lshr i32 %94, 12
  %96 = trunc i32 %95 to i16
  store i16 %96, ptr %2, align 2, !tbaa !6
  %97 = sub i32 %.0110, %.0106
  %98 = lshr i32 %97, 12
  %99 = trunc i32 %98 to i16
  %100 = getelementptr inbounds nuw i8, ptr %0, i64 10
  store i16 %99, ptr %100, align 2, !tbaa !6
  %101 = add i32 %.0105, %.0109
  %102 = lshr i32 %101, 12
  %103 = trunc i32 %102 to i16
  store i16 %103, ptr %31, align 2, !tbaa !6
  %104 = sub i32 %.0109, %.0105
  %105 = lshr i32 %104, 12
  %106 = trunc i32 %105 to i16
  store i16 %106, ptr %4, align 2, !tbaa !6
  br label %107

107:                                              ; preds = %80, %16
  ret void
}